; Function Attrs: nounwind uwtable
define noalias nonnull ptr @l_Lean_isTracingEnabledFor___at_Lean_Meta_mkInjectiveTheorems___spec__6___boxed(ptr noundef %0, ptr noundef %1, ptr noundef %2, ptr noundef %3, ptr noundef %4, ptr noundef %5) local_unnamed_addr #0 {
  %7 = getelementptr inbounds nuw i8, ptr %3, i64 104
  %8 = load ptr, ptr %7, align 8, !tbaa !4
  %9 = getelementptr inbounds nuw i8, ptr %3, i64 24
  %10 = load ptr, ptr %9, align 8, !tbaa !4
  %11 = tail call zeroext i8 @l_Lean_checkTraceOption(ptr noundef %8, ptr noundef %10, ptr noundef %0) #5
  tail call void @lean_inc_heartbeat() #5
  %12 = tail call noalias ptr @mi_malloc_small(i64 noundef 24) #5
  %13 = icmp eq ptr %12, null
  br i1 %13, label %14, label %l_Lean_isTracingEnabledFor___at_Lean_Meta_mkInjectiveTheorems___spec__6.exit

14:                                               ; preds = %6
  tail call void @lean_internal_panic_out_of_memory() #6
  unreachable

l_Lean_isTracingEnabledFor___at_Lean_Meta_mkInjectiveTheorems___spec__6.exit: ; preds = %6
  %15 = zext i8 %11 to i64
  %16 = shl nuw nsw i64 %15, 1
  %17 = or disjoint i64 %16, 1
  %18 = inttoptr i64 %17 to ptr
  %19 = getelementptr inbounds nuw i8, ptr %12, i64 4
  store i32 1, ptr %12, align 4, !tbaa !8
  store i32 131096, ptr %19, align 4
  %20 = getelementptr inbounds nuw i8, ptr %12, i64 8
  store ptr %18, ptr %20, align 8, !tbaa !4
  %21 = getelementptr inbounds nuw i8, ptr %12, i64 16
  store ptr %5, ptr %21, align 8, !tbaa !4
  %22 = ptrtoint ptr %4 to i64
  %23 = and i64 %22, 1
  %.not = icmp eq i64 %23, 0
  br i1 %.not, label %24, label %lean_dec.exit13

24:                                               ; preds = %l_Lean_isTracingEnabledFor___at_Lean_Meta_mkInjectiveTheorems___spec__6.exit
  %25 = load i32, ptr %4, align 4, !tbaa !8
  %26 = icmp sgt i32 %25, 1
  br i1 %26, label %27, label %29, !prof !11

27:                                               ; preds = %24
  %28 = add nsw i32 %25, -1
  store i32 %28, ptr %4, align 4, !tbaa !8
  br label %lean_dec.exit13

29:                                               ; preds = %24
  %.not.i = icmp eq i32 %25, 0
  br i1 %.not.i, label %lean_dec.exit13, label %30

30:                                               ; preds = %29
  tail call void @lean_dec_ref_cold(ptr noundef nonnull %4) #5
  br label %lean_dec.exit13

lean_dec.exit13:                                  ; preds = %30, %29, %27, %l_Lean_isTracingEnabledFor___at_Lean_Meta_mkInjectiveTheorems___spec__6.exit
  %31 = ptrtoint ptr %3 to i64
  %32 = and i64 %31, 1
  %.not20 = icmp eq i64 %32, 0
  br i1 %.not20, label %33, label %lean_dec.exit12

33:                                               ; preds = %lean_dec.exit13
  %34 = load i32, ptr %3, align 4, !tbaa !8
  %35 = icmp sgt i32 %34, 1
  br i1 %35, label %36, label %38, !prof !11

36:                                               ; preds = %33
  %37 = add nsw i32 %34, -1
  store i32 %37, ptr %3, align 4, !tbaa !8
  br label %lean_dec.exit12

38:                                               ; preds = %33
  %.not.i14 = icmp eq i32 %34, 0
  br i1 %.not.i14, label %lean_dec.exit12, label %39

39:                                               ; preds = %38
  tail call void @lean_dec_ref_cold(ptr noundef nonnull %3) #5
  br label %lean_dec.exit12

lean_dec.exit12:                                  ; preds = %39, %38, %36, %lean_dec.exit13
  %40 = ptrtoint ptr %2 to i64
  %41 = and i64 %40, 1
  %.not21 = icmp eq i64 %41, 0
  br i1 %.not21, label %42, label %lean_dec.exit11

42:                                               ; preds = %lean_dec.exit12
  %43 = load i32, ptr %2, align 4, !tbaa !8
  %44 = icmp sgt i32 %43, 1
  br i1 %44, label %45, label %47, !prof !11

45:                                               ; preds = %42
  %46 = add nsw i32 %43, -1
  store i32 %46, ptr %2, align 4, !tbaa !8
  br label %lean_dec.exit11

47:                                               ; preds = %42
  %.not.i16 = icmp eq i32 %43, 0
  br i1 %.not.i16, label %lean_dec.exit11, label %48

48:                                               ; preds = %47
  tail call void @lean_dec_ref_cold(ptr noundef nonnull %2) #5
  br label %lean_dec.exit11

lean_dec.exit11:                                  ; preds = %48, %47, %45, %lean_dec.exit12
  %49 = ptrtoint ptr %1 to i64
  %50 = and i64 %49, 1
  %.not22 = icmp eq i64 %50, 0
  br i1 %.not22, label %51, label %lean_dec.exit

51:                                               ; preds = %lean_dec.exit11
  %52 = load i32, ptr %1, align 4, !tbaa !8
  %53 = icmp sgt i32 %52, 1
  br i1 %53, label %54, label %56, !prof !11

54:                                               ; preds = %51
  %55 = add nsw i32 %52, -1
  store i32 %55, ptr %1, align 4, !tbaa !8
  br label %lean_dec.exit

56:                                               ; preds = %51
  %.not.i18 = icmp eq i32 %52, 0
  br i1 %.not.i18, label %lean_dec.exit, label %57

57:                                               ; preds = %56
  tail call void @lean_dec_ref_cold(ptr noundef nonnull %1) #5
  br label %lean_dec.exit

lean_dec.exit:                                    ; preds = %57, %56, %54, %lean_dec.exit11
  ret ptr %12
}